; Function Attrs: mustprogress uwtable
define hidden void @_ZNK4cvc58internal9BitVector16unsignedRemTotalERKS1_(ptr dead_on_unwind noalias writable sret(%"class.cvc5::internal::BitVector") align 8 %0, ptr noundef nonnull align 8 dereferenceable(24) %1, ptr noundef nonnull align 8 dereferenceable(24) %2) local_unnamed_addr #3 align 2 personality ptr @__gxx_personality_v0 {
  %4 = alloca %"class.cvc5::internal::Integer", align 8
  %5 = alloca %"class.cvc5::internal::Integer", align 8
  %6 = getelementptr inbounds nuw i8, ptr %2, i64 8
  call void @llvm.lifetime.start.p0(i64 16, ptr nonnull %4) #16
  call void @__gmpz_init(ptr noundef nonnull align 8 dereferenceable(16) %4) #16
  %7 = invoke noundef zeroext i1 @_ZNK4cvc58internal7IntegereqERKS1_(ptr noundef nonnull align 8 dereferenceable(16) %6, ptr noundef nonnull align 8 dereferenceable(16) %4)
          to label %8 unwind label %16

8:                                                ; preds = %3
  invoke void @__gmpz_clear(ptr noundef nonnull align 8 dereferenceable(16) %4)
          to label %_ZN4cvc58internal7IntegerD2Ev.exit unwind label %9

9:                                                ; preds = %8
  %10 = landingpad { ptr, i32 }
          catch ptr null
  %11 = extractvalue { ptr, i32 } %10, 0
  call void @__clang_call_terminate(ptr %11) #17
  unreachable

_ZN4cvc58internal7IntegerD2Ev.exit:               ; preds = %8
  call void @llvm.lifetime.end.p0(i64 16, ptr nonnull %4) #16
  %12 = load i32, ptr %1, align 8, !tbaa !11
  br i1 %7, label %13, label %21

13:                                               ; preds = %_ZN4cvc58internal7IntegerD2Ev.exit
  %14 = getelementptr inbounds nuw i8, ptr %1, i64 8
  store i32 %12, ptr %0, align 8, !tbaa !11
  %15 = getelementptr inbounds nuw i8, ptr %0, i64 8
  call void @_ZNK4cvc58internal7Integer9modByPow2Ej(ptr dead_on_unwind nonnull writable sret(%"class.cvc5::internal::Integer") align 8 %15, ptr noundef nonnull align 8 dereferenceable(16) %14, i32 noundef %12)
  br label %32

16:                                               ; preds = %3
  %17 = landingpad { ptr, i32 }
          cleanup
  invoke void @__gmpz_clear(ptr noundef nonnull align 8 dereferenceable(16) %4)
          to label %_ZN4cvc58internal7IntegerD2Ev.exit6 unwind label %18

18:                                               ; preds = %16
  %19 = landingpad { ptr, i32 }
          catch ptr null
  %20 = extractvalue { ptr, i32 } %19, 0
  call void @__clang_call_terminate(ptr %20) #17
  unreachable

_ZN4cvc58internal7IntegerD2Ev.exit6:              ; preds = %16
  call void @llvm.lifetime.end.p0(i64 16, ptr nonnull %4) #16
  br label %33

21:                                               ; preds = %_ZN4cvc58internal7IntegerD2Ev.exit
  call void @llvm.lifetime.start.p0(i64 16, ptr nonnull %5) #16
  %22 = getelementptr inbounds nuw i8, ptr %1, i64 8
  call void @_ZNK4cvc58internal7Integer20floorDivideRemainderERKS1_(ptr dead_on_unwind nonnull writable sret(%"class.cvc5::internal::Integer") align 8 %5, ptr noundef nonnull align 8 dereferenceable(16) %22, ptr noundef nonnull align 8 dereferenceable(16) %6)
  store i32 %12, ptr %0, align 8, !tbaa !11
  %23 = getelementptr inbounds nuw i8, ptr %0, i64 8
  invoke void @_ZNK4cvc58internal7Integer9modByPow2Ej(ptr dead_on_unwind nonnull writable sret(%"class.cvc5::internal::Integer") align 8 %23, ptr noundef nonnull align 8 dereferenceable(16) %5, i32 noundef %12)
          to label %_ZN4cvc58internal9BitVectorC2EjRKNS0_7IntegerE.exit unwind label %27

_ZN4cvc58internal9BitVectorC2EjRKNS0_7IntegerE.exit: ; preds = %21
  invoke void @__gmpz_clear(ptr noundef nonnull align 8 dereferenceable(16) %5)
          to label %_ZN4cvc58internal7IntegerD2Ev.exit7 unwind label %24

24:                                               ; preds = %_ZN4cvc58internal9BitVectorC2EjRKNS0_7IntegerE.exit
  %25 = landingpad { ptr, i32 }
          catch ptr null
  %26 = extractvalue { ptr, i32 } %25, 0
  call void @__clang_call_terminate(ptr %26) #17
  unreachable

_ZN4cvc58internal7IntegerD2Ev.exit7:              ; preds = %_ZN4cvc58internal9BitVectorC2EjRKNS0_7IntegerE.exit
  call void @llvm.lifetime.end.p0(i64 16, ptr nonnull %5) #16
  br label %32

27:                                               ; preds = %21
  %28 = landingpad { ptr, i32 }
          cleanup
  invoke void @__gmpz_clear(ptr noundef nonnull align 8 dereferenceable(16) %5)
          to label %_ZN4cvc58internal7IntegerD2Ev.exit8 unwind label %29

29:                                               ; preds = %27
  %30 = landingpad { ptr, i32 }
          catch ptr null
  %31 = extractvalue { ptr, i32 } %30, 0
  call void @__clang_call_terminate(ptr %31) #17
  unreachable

_ZN4cvc58internal7IntegerD2Ev.exit8:              ; preds = %27
  call void @llvm.lifetime.end.p0(i64 16, ptr nonnull %5) #16
  br label %33

32:                                               ; preds = %_ZN4cvc58internal7IntegerD2Ev.exit7, %13
  ret void

33:                                               ; preds = %_ZN4cvc58internal7IntegerD2Ev.exit8, %_ZN4cvc58internal7IntegerD2Ev.exit6
  %.pn = phi { ptr, i32 } [ %28, %_ZN4cvc58internal7IntegerD2Ev.exit8 ], [ %17, %_ZN4cvc58internal7IntegerD2Ev.exit6 ]
  resume { ptr, i32 } %.pn
}